; Function Attrs: mustprogress nounwind uwtable
define hidden noundef ptr @__unw_regname(ptr noundef %0, i32 noundef %1) #0 {
  %.b1.i = load i1, ptr @_ZZ7logAPIsE7checked, align 1
  br i1 %.b1.i, label %._crit_edge.i, label %logAPIs.exit

._crit_edge.i:                                    ; preds = %2
  %.pre.i = load i8, ptr @_ZZ7logAPIsE3log, align 1, !tbaa !6, !range !10
  %3 = trunc nuw i8 %.pre.i to i1
  br i1 %3, label %7, label %12

logAPIs.exit:                                     ; preds = %2
  %4 = tail call ptr @getenv(ptr noundef nonnull @.str.15) #15
  %5 = icmp ne ptr %4, null
  %6 = zext i1 %5 to i8
  store i8 %6, ptr @_ZZ7logAPIsE3log, align 1, !tbaa !6
  store i1 true, ptr @_ZZ7logAPIsE7checked, align 1
  br i1 %5, label %7, label %12

7:                                                ; preds = %._crit_edge.i, %logAPIs.exit
  %8 = load ptr, ptr @stderr, align 8, !tbaa !11
  %9 = tail call i32 (ptr, ptr, ...) @fprintf(ptr noundef %8, ptr noundef nonnull @.str.11, ptr noundef %0, i32 noundef %1) #16
  %10 = load ptr, ptr @stderr, align 8, !tbaa !11
  %11 = tail call i32 @fflush(ptr noundef %10)
  br label %12

12:                                               ; preds = %._crit_edge.i, %logAPIs.exit, %7
  %13 = load ptr, ptr %0, align 8, !tbaa !14
  %14 = getelementptr inbounds nuw i8, ptr %13, i64 112
  %15 = load ptr, ptr %14, align 8
  %16 = tail call noundef ptr %15(ptr noundef nonnull align 8 dereferenceable(8) %0, i32 noundef %1) #15
  ret ptr %16
}